target datalayout = "e-m:e-p270:32:32-p271:32:32-p272:64:64-i64:64-i128:128-f80:128-n8:16:32:64-S128"
target triple = "x86_64-pc-linux-gnu"

%struct.RBasic = type { i64, i64 }

; Function Attrs: inlinehint nounwind sspstrong willreturn memory(read) uwtable
define internal i64 @RB_FL_TEST_RAW(i64 noundef %0, i64 noundef %1) #6 {
  %3 = alloca i64, align 8
  %4 = alloca i64, align 8
  store i64 %0, ptr %3, align 8, !tbaa !26
  store i64 %1, ptr %4, align 8, !tbaa !26
  %5 = load i64, ptr %3, align 8, !tbaa !26
  %6 = inttoptr i64 %5 to ptr
  %7 = getelementptr inbounds nuw %struct.RBasic, ptr %6, i32 0, i32 0
  %8 = load i64, ptr %7, align 8, !tbaa !91
  %9 = load i64, ptr %4, align 8, !tbaa !26
  %10 = and i64 %8, %9
  ret i64 %10
}

; Function Attrs: inlinehint nounwind sspstrong willreturn memory(none) uwtable
define internal i64 @RB_INT2FIX(i64 noundef %0) #8 {
  %2 = alloca i64, align 8
  %3 = alloca i64, align 8
  %4 = alloca i64, align 8
  %5 = alloca i64, align 8
  %6 = alloca i64, align 8
  %7 = alloca i64, align 8
  store i64 %0, ptr %2, align 8, !tbaa !26
  call void @llvm.lifetime.start.p0(i64 8, ptr %3) #24
  %8 = load i64, ptr %2, align 8, !tbaa !26
  store i64 %8, ptr %3, align 8, !tbaa !26
  call void @llvm.lifetime.start.p0(i64 8, ptr %4) #24
  %9 = load i64, ptr %3, align 8, !tbaa !26
  %10 = shl i64 %9, 1
  %11 = add i64 %10, 1
  store i64 %11, ptr %4, align 8, !tbaa !26
  call void @llvm.lifetime.start.p0(i64 8, ptr %5) #24
  %12 = load i64, ptr %4, align 8, !tbaa !26
  store i64 %12, ptr %5, align 8, !tbaa !26
  call void @llvm.lifetime.start.p0(i64 8, ptr %6) #24
  %13 = load i64, ptr %5, align 8, !tbaa !26
  store i64 %13, ptr %6, align 8, !tbaa !26
  call void @llvm.lifetime.start.p0(i64 8, ptr %7) #24
  %14 = load i64, ptr %6, align 8, !tbaa !26
  store i64 %14, ptr %7, align 8, !tbaa !26
  %15 = load i64, ptr %7, align 8, !tbaa !26
  call void @llvm.lifetime.end.p0(i64 8, ptr %7) #24
  call void @llvm.lifetime.end.p0(i64 8, ptr %6) #24
  call void @llvm.lifetime.end.p0(i64 8, ptr %5) #24
  call void @llvm.lifetime.end.p0(i64 8, ptr %4) #24
  call void @llvm.lifetime.end.p0(i64 8, ptr %3) #24
  ret i64 %15
}

; Function Attrs: inlinehint nounwind sspstrong willreturn memory(none) uwtable
define internal i64 @rbimpl_fix2long_by_idiv(i64 noundef %0) #8 {
  %2 = alloca i64, align 8
  %3 = alloca i64, align 8
  %4 = alloca i64, align 8
  %5 = alloca i64, align 8
  store i64 %0, ptr %2, align 8, !tbaa !26
  call void @llvm.lifetime.start.p0(i64 8, ptr %3) #24
  %6 = load i64, ptr %2, align 8, !tbaa !26
  %7 = sub i64 %6, 1
  store i64 %7, ptr %3, align 8, !tbaa !26
  call void @llvm.lifetime.start.p0(i64 8, ptr %4) #24
  %8 = load i64, ptr %3, align 8, !tbaa !26
  %9 = sdiv i64 %8, 2
  store i64 %9, ptr %4, align 8, !tbaa !26
  call void @llvm.lifetime.start.p0(i64 8, ptr %5) #24
  %10 = load i64, ptr %4, align 8, !tbaa !26
  store i64 %10, ptr %5, align 8, !tbaa !26
  %11 = load i64, ptr %5, align 8, !tbaa !26
  call void @llvm.lifetime.end.p0(i64 8, ptr %5) #24
  call void @llvm.lifetime.end.p0(i64 8, ptr %4) #24
  call void @llvm.lifetime.end.p0(i64 8, ptr %3) #24
  ret i64 %11
}

; Function Attrs: inlinehint nounwind sspstrong willreturn memory(none) uwtable
define internal i64 @rbimpl_fix2long_by_shift(i64 noundef %0) #8 {
  %2 = alloca i64, align 8
  %3 = alloca i64, align 8
  %4 = alloca i64, align 8
  %5 = alloca i64, align 8
  store i64 %0, ptr %2, align 8, !tbaa !26
  call void @llvm.lifetime.start.p0(i64 8, ptr %3) #24
  %6 = load i64, ptr %2, align 8, !tbaa !26
  store i64 %6, ptr %3, align 8, !tbaa !26
  call void @llvm.lifetime.start.p0(i64 8, ptr %4) #24
  %7 = load i64, ptr %3, align 8, !tbaa !26
  %8 = ashr i64 %7, 1
  store i64 %8, ptr %4, align 8, !tbaa !26
  call void @llvm.lifetime.start.p0(i64 8, ptr %5) #24
  %9 = load i64, ptr %4, align 8, !tbaa !26
  store i64 %9, ptr %5, align 8, !tbaa !26
  %10 = load i64, ptr %5, align 8, !tbaa !26
  call void @llvm.lifetime.end.p0(i64 8, ptr %5) #24
  call void @llvm.lifetime.end.p0(i64 8, ptr %4) #24
  call void @llvm.lifetime.end.p0(i64 8, ptr %3) #24
  ret i64 %10
}

; Function Attrs: inlinehint nounwind sspstrong willreturn memory(none) uwtable
define internal zeroext i1 @rbimpl_right_shift_is_arithmetic_p() #8 {
  ret i1 true
}

; Function Attrs: inlinehint nounwind sspstrong uwtable
define internal i64 @rb_long2num_inline(i64 noundef %0) #4 {
  %2 = alloca i64, align 8
  %3 = alloca i64, align 8
  store i64 %0, ptr %3, align 8, !tbaa !26
  %4 = load i64, ptr %3, align 8, !tbaa !26
  %5 = icmp slt i64 %4, 4611686018427387904
  br i1 %5, label %6, label %12

6:                                                ; preds = %1
  %7 = load i64, ptr %3, align 8, !tbaa !26
  %8 = icmp sge i64 %7, -4611686018427387904
  br i1 %8, label %9, label %12

9:                                                ; preds = %6
  %10 = load i64, ptr %3, align 8, !tbaa !26
  %11 = call i64 @RB_INT2FIX(i64 noundef %10) #28
  store i64 %11, ptr %2, align 8
  br label %15

12:                                               ; preds = %6, %1
  %13 = load i64, ptr %3, align 8, !tbaa !26
  %14 = call i64 @rb_int2big(i64 noundef %13)
  store i64 %14, ptr %2, align 8
  br label %15

15:                                               ; preds = %12, %9
  %16 = load i64, ptr %2, align 8
  ret i64 %16
}

; Function Attrs: inlinehint nounwind sspstrong uwtable
define internal zeroext i1 @BIGNUM_SIGN(i64 noundef %0) #4 {
  %2 = alloca i64, align 8
  store i64 %0, ptr %2, align 8, !tbaa !26
  %3 = load i64, ptr %2, align 8, !tbaa !26
  %4 = call i64 @RB_FL_TEST_RAW(i64 noundef %3, i64 noundef 8192) #26
  %5 = icmp ne i64 %4, 0
  ret i1 %5
}

; Function Attrs: inlinehint nounwind sspstrong uwtable
define internal i64 @rb_ulong2num_inline(i64 noundef %0) #4 {
  %2 = alloca i64, align 8
  %3 = alloca i64, align 8
  store i64 %0, ptr %3, align 8, !tbaa !26
  %4 = load i64, ptr %3, align 8, !tbaa !26
  %5 = icmp ult i64 %4, 4611686018427387904
  br i1 %5, label %6, label %9

6:                                                ; preds = %1
  %7 = load i64, ptr %3, align 8, !tbaa !26
  %8 = call i64 @RB_INT2FIX(i64 noundef %7) #28
  store i64 %8, ptr %2, align 8
  br label %12

9:                                                ; preds = %1
  %10 = load i64, ptr %3, align 8, !tbaa !26
  %11 = call i64 @rb_uint2big(i64 noundef %10)
  store i64 %11, ptr %2, align 8
  br label %12

12:                                               ; preds = %9, %6
  %13 = load i64, ptr %2, align 8
  ret i64 %13
}

; Function Attrs: inlinehint nounwind sspstrong willreturn memory(none) uwtable
define internal i64 @rb_fix2long(i64 noundef %0) #8 {
  %2 = alloca i64, align 8
  %3 = alloca i64, align 8
  store i64 %0, ptr %3, align 8, !tbaa !26
  %4 = call zeroext i1 @rbimpl_right_shift_is_arithmetic_p() #28
  br i1 %4, label %5, label %8

5:                                                ; preds = %1
  %6 = load i64, ptr %3, align 8, !tbaa !26
  %7 = call i64 @rbimpl_fix2long_by_shift(i64 noundef %6) #28
  store i64 %7, ptr %2, align 8
  br label %11

8:                                                ; preds = %1
  %9 = load i64, ptr %3, align 8, !tbaa !26
  %10 = call i64 @rbimpl_fix2long_by_idiv(i64 noundef %9) #28
  store i64 %10, ptr %2, align 8
  br label %11

11:                                               ; preds = %8, %5
  %12 = load i64, ptr %2, align 8
  ret i64 %12
}

; Function Attrs: inlinehint nounwind sspstrong willreturn memory(none) uwtable
define internal zeroext i1 @RB_FIXNUM_P(i64 noundef %0) #8 {
  %2 = alloca i64, align 8
  store i64 %0, ptr %2, align 8, !tbaa !26
  %3 = load i64, ptr %2, align 8, !tbaa !26
  %4 = and i64 %3, 1
  %5 = icmp ne i64 %4, 0
  ret i1 %5
}

; Function Attrs: nounwind sspstrong uwtable
define internal i64 @rand_int(i64 noundef %0, ptr noundef %1, i64 noundef %2, i32 noundef %3) #0 {
  %5 = alloca i64, align 8
  %6 = alloca i64, align 8
  %7 = alloca ptr, align 8
  %8 = alloca i64, align 8
  %9 = alloca i32, align 4
  %10 = alloca i64, align 8
  %11 = alloca i64, align 8
  %12 = alloca i32, align 4
  %13 = alloca i64, align 8
  %14 = alloca i64, align 8
  %15 = alloca ptr, align 8
  %16 = alloca ptr, align 8
  store i64 %0, ptr %6, align 8, !tbaa !26
  store ptr %1, ptr %7, align 8, !tbaa !24
  store i64 %2, ptr %8, align 8, !tbaa !26
  store i32 %3, ptr %9, align 4, !tbaa !19
  call void @llvm.lifetime.start.p0(i64 8, ptr %10) #24
  %17 = load i64, ptr %8, align 8, !tbaa !26
  %18 = call zeroext i1 @RB_FIXNUM_P(i64 noundef %17) #28
  br i1 %18, label %19, label %44

19:                                               ; preds = %4
  call void @llvm.lifetime.start.p0(i64 8, ptr %11) #24
  %20 = load i64, ptr %8, align 8, !tbaa !26
  %21 = call i64 @rb_fix2long(i64 noundef %20) #28
  store i64 %21, ptr %11, align 8, !tbaa !26
  %22 = load i64, ptr %11, align 8, !tbaa !26
  %23 = icmp ne i64 %22, 0
  br i1 %23, label %25, label %24

24:                                               ; preds = %19
  store i64 4, ptr %5, align 8
  store i32 1, ptr %12, align 4
  br label %43

25:                                               ; preds = %19
  %26 = load i64, ptr %11, align 8, !tbaa !26
  %27 = icmp slt i64 %26, 0
  br i1 %27, label %28, label %35

28:                                               ; preds = %25
  %29 = load i32, ptr %9, align 4, !tbaa !19
  %30 = icmp ne i32 %29, 0
  br i1 %30, label %31, label %32

31:                                               ; preds = %28
  store i64 4, ptr %5, align 8
  store i32 1, ptr %12, align 4
  br label %43

32:                                               ; preds = %28
  %33 = load i64, ptr %11, align 8, !tbaa !26
  %34 = sub i64 0, %33
  store i64 %34, ptr %11, align 8, !tbaa !26
  br label %35

35:                                               ; preds = %32, %25
  %36 = load i64, ptr %6, align 8, !tbaa !26
  %37 = load ptr, ptr %7, align 8, !tbaa !24
  %38 = load i64, ptr %11, align 8, !tbaa !26
  %39 = sub i64 %38, 1
  %40 = call i64 @random_ulong_limited(i64 noundef %36, ptr noundef %37, i64 noundef %39)
  store i64 %40, ptr %10, align 8, !tbaa !26
  %41 = load i64, ptr %10, align 8, !tbaa !26
  %42 = call i64 @rb_ulong2num_inline(i64 noundef %41)
  store i64 %42, ptr %5, align 8
  store i32 1, ptr %12, align 4
  br label %43

43:                                               ; preds = %35, %31, %24
  call void @llvm.lifetime.end.p0(i64 8, ptr %11) #24
  br label %88

44:                                               ; preds = %4
  call void @llvm.lifetime.start.p0(i64 8, ptr %13) #24
  %45 = load i64, ptr %8, align 8, !tbaa !26
  %46 = call i32 @rb_bigzero_p(i64 noundef %45)
  %47 = icmp ne i32 %46, 0
  br i1 %47, label %48, label %49

48:                                               ; preds = %44
  store i64 4, ptr %5, align 8
  store i32 1, ptr %12, align 4
  br label %87

49:                                               ; preds = %44
  %50 = load i64, ptr %8, align 8, !tbaa !26
  %51 = call zeroext i1 @BIGNUM_SIGN(i64 noundef %50)
  br i1 %51, label %59, label %52

52:                                               ; preds = %49
  %53 = load i32, ptr %9, align 4, !tbaa !19
  %54 = icmp ne i32 %53, 0
  br i1 %54, label %55, label %56

55:                                               ; preds = %52
  store i64 4, ptr %5, align 8
  store i32 1, ptr %12, align 4
  br label %87

56:                                               ; preds = %52
  %57 = load i64, ptr %8, align 8, !tbaa !26
  %58 = call i64 @rb_big_uminus(i64 noundef %57)
  store i64 %58, ptr %8, align 8, !tbaa !26
  br label %59

59:                                               ; preds = %56, %49
  %60 = load i64, ptr %8, align 8, !tbaa !26
  %61 = call i64 @rb_big_minus(i64 noundef %60, i64 noundef 3)
  store i64 %61, ptr %8, align 8, !tbaa !26
  %62 = load i64, ptr %8, align 8, !tbaa !26
  %63 = call zeroext i1 @RB_FIXNUM_P(i64 noundef %62) #28
  br i1 %63, label %64, label %78

64:                                               ; preds = %59
  call void @llvm.lifetime.start.p0(i64 8, ptr %14) #24
  %65 = load i64, ptr %8, align 8, !tbaa !26
  %66 = call i64 @rb_fix2long(i64 noundef %65) #28
  store i64 %66, ptr %14, align 8, !tbaa !26
  %67 = load i64, ptr %14, align 8, !tbaa !26
  %68 = icmp eq i64 %67, -1
  br i1 %68, label %69, label %70

69:                                               ; preds = %64
  store i64 4, ptr %5, align 8
  store i32 1, ptr %12, align 4
  br label %77

70:                                               ; preds = %64
  %71 = load i64, ptr %6, align 8, !tbaa !26
  %72 = load ptr, ptr %7, align 8, !tbaa !24
  %73 = load i64, ptr %14, align 8, !tbaa !26
  %74 = call i64 @random_ulong_limited(i64 noundef %71, ptr noundef %72, i64 noundef %73)
  store i64 %74, ptr %10, align 8, !tbaa !26
  %75 = load i64, ptr %10, align 8, !tbaa !26
  %76 = call i64 @rb_long2num_inline(i64 noundef %75)
  store i64 %76, ptr %5, align 8
  store i32 1, ptr %12, align 4
  br label %77

77:                                               ; preds = %70, %69
  call void @llvm.lifetime.end.p0(i64 8, ptr %14) #24
  br label %87

78:                                               ; preds = %59
  %79 = load i64, ptr %6, align 8, !tbaa !26
  %80 = load ptr, ptr %7, align 8, !tbaa !24
  %81 = load i64, ptr %8, align 8, !tbaa !26
  %82 = call i64 @random_ulong_limited_big(i64 noundef %79, ptr noundef %80, i64 noundef %81)
  store i64 %82, ptr %13, align 8, !tbaa !26
  call void @llvm.lifetime.start.p0(i64 8, ptr %15) #24
  store ptr %8, ptr %15, align 8, !tbaa !55
  call void asm sideeffect "", "*m,~{dirflag},~{fpsr},~{flags}"(ptr elementtype(ptr) %15) #24, !srcloc !97
  %83 = load ptr, ptr %15, align 8, !tbaa !55
  store ptr %83, ptr %16, align 8, !tbaa !55
  call void @llvm.lifetime.end.p0(i64 8, ptr %15) #24
  %84 = load ptr, ptr %16, align 8, !tbaa !55
  %85 = load volatile i64, ptr %84, align 8, !tbaa !26
  %86 = load i64, ptr %13, align 8, !tbaa !26
  store i64 %86, ptr %5, align 8
  store i32 1, ptr %12, align 4
  br label %87

87:                                               ; preds = %78, %77, %55, %48
  call void @llvm.lifetime.end.p0(i64 8, ptr %13) #24
  br label %88

88:                                               ; preds = %87, %43
  call void @llvm.lifetime.end.p0(i64 8, ptr %10) #24
  %89 = load i64, ptr %5, align 8
  ret i64 %89
}