; Function Attrs: nounwind sspstrong uwtable
define internal fastcc i64 @rand_int(i64 noundef %0, ptr noundef %1, i64 noundef %2, i32 noundef range(i32 0, 2) %3) unnamed_addr #0 {
  %5 = alloca i64, align 8
  %6 = alloca ptr, align 8
  %7 = and i64 %2, 1
  %.not25 = icmp eq i64 %7, 0
  br i1 %.not25, label %24, label %8

8:                                                ; preds = %4
  %9 = ashr i64 %2, 1
  %.not22 = icmp ult i64 %2, 2
  br i1 %.not22, label %rb_ulong2num_inline.exit, label %10

10:                                               ; preds = %8
  %11 = icmp slt i64 %9, 0
  br i1 %11, label %12, label %15

12:                                               ; preds = %10
  %.not23 = icmp eq i32 %3, 0
  br i1 %.not23, label %13, label %rb_ulong2num_inline.exit

13:                                               ; preds = %12
  %14 = sub nsw i64 0, %9
  br label %15

15:                                               ; preds = %13, %10
  %.018 = phi i64 [ %14, %13 ], [ %9, %10 ]
  %16 = add nsw i64 %.018, -1
  %17 = tail call fastcc i64 @random_ulong_limited(i64 noundef %0, ptr noundef %1, i64 noundef %16)
  %18 = icmp ult i64 %17, 4611686018427387904
  br i1 %18, label %19, label %22

19:                                               ; preds = %15
  %20 = shl nuw nsw i64 %17, 1
  %21 = or disjoint i64 %20, 1
  br label %rb_ulong2num_inline.exit

22:                                               ; preds = %15
  %23 = tail call i64 @rb_uint2big(i64 noundef %17) #23
  br label %rb_ulong2num_inline.exit

24:                                               ; preds = %4
  %25 = tail call i32 @rb_bigzero_p(i64 noundef %2) #23
  %.not = icmp eq i32 %25, 0
  br i1 %.not, label %26, label %rb_ulong2num_inline.exit

26:                                               ; preds = %24
  %27 = inttoptr i64 %2 to ptr
  %28 = load i64, ptr %27, align 8, !tbaa !48
  %29 = and i64 %28, 8192
  %.not26 = icmp eq i64 %29, 0
  br i1 %.not26, label %30, label %33

30:                                               ; preds = %26
  %.not21 = icmp eq i32 %3, 0
  br i1 %.not21, label %31, label %rb_ulong2num_inline.exit

31:                                               ; preds = %30
  %32 = tail call i64 @rb_big_uminus(i64 noundef %2) #23
  br label %33

33:                                               ; preds = %31, %26
  %34 = phi i64 [ %32, %31 ], [ %2, %26 ]
  %35 = tail call i64 @rb_big_minus(i64 noundef %34, i64 noundef 3) #23
  store i64 %35, ptr %5, align 8, !tbaa !43
  %36 = and i64 %35, 1
  %.not27 = icmp eq i64 %36, 0
  br i1 %.not27, label %48, label %37

37:                                               ; preds = %33
  %38 = ashr i64 %35, 1
  %39 = icmp eq i64 %38, -1
  br i1 %39, label %rb_ulong2num_inline.exit, label %40

40:                                               ; preds = %37
  %41 = tail call fastcc i64 @random_ulong_limited(i64 noundef %0, ptr noundef %1, i64 noundef %38)
  %42 = add i64 %41, 4611686018427387904
  %or.cond.i = icmp sgt i64 %42, -1
  br i1 %or.cond.i, label %43, label %46

43:                                               ; preds = %40
  %44 = shl nsw i64 %41, 1
  %45 = or disjoint i64 %44, 1
  br label %rb_ulong2num_inline.exit

46:                                               ; preds = %40
  %47 = tail call i64 @rb_int2big(i64 noundef %41) #23
  br label %rb_ulong2num_inline.exit

48:                                               ; preds = %33
  %49 = tail call fastcc i64 @random_ulong_limited_big(i64 noundef %0, ptr noundef %1, i64 noundef %35)
  call void @llvm.lifetime.start.p0(i64 8, ptr nonnull %6) #23
  store ptr %5, ptr %6, align 8, !tbaa !94
  call void asm sideeffect "", "*m,~{dirflag},~{fpsr},~{flags}"(ptr nonnull elementtype(ptr) %6) #23, !srcloc !96
  %50 = load ptr, ptr %6, align 8, !tbaa !94
  call void @llvm.lifetime.end.p0(i64 8, ptr nonnull %6) #23
  %51 = load volatile i64, ptr %50, align 8, !tbaa !43
  br label %rb_ulong2num_inline.exit

rb_ulong2num_inline.exit:                         ; preds = %46, %43, %22, %19, %48, %24, %30, %37, %8, %12
  %.1 = phi i64 [ 4, %8 ], [ 4, %12 ], [ %49, %48 ], [ 4, %24 ], [ 4, %30 ], [ 4, %37 ], [ %21, %19 ], [ %23, %22 ], [ %45, %43 ], [ %47, %46 ]
  ret i64 %.1
}